target datalayout = "e-m:e-p270:32:32-p271:32:32-p272:64:64-i64:64-i128:128-f80:128-n8:16:32:64-S128"
target triple = "x86_64-pc-linux-gnu"

%struct.pmix_mca_base_framework_t = type { ptr, ptr, ptr, ptr, ptr, ptr, i32, i32, ptr, ptr, i32, i32, %struct.pmix_list_t, %struct.pmix_list_t }
%struct.pmix_list_t = type { %struct.pmix_object_t, %struct.pmix_list_item_t, i64 }
%struct.pmix_object_t = type { %union.pthread_mutex_t, ptr, i32, %struct.pmix_tma }
%union.pthread_mutex_t = type { %struct.__pthread_mutex_s }
%struct.__pthread_mutex_s = type { i32, i32, i32, i32, i32, i16, i16, %struct.__pthread_internal_list }
%struct.__pthread_internal_list = type { ptr, ptr }
%struct.pmix_tma = type { ptr, ptr, ptr, ptr, ptr, ptr, ptr, ptr }
%struct.pmix_list_item_t = type { %struct.pmix_object_t, ptr, ptr, i32 }
%struct.pmix_output_desc_t = type { i8, i8, i32, i8, i32, ptr, ptr, i32, ptr, i32, i8, i8, i8, i8, ptr, i32, i32 }

@pmix_ptl_base_framework = external global %struct.pmix_mca_base_framework_t, align 8
@pmix_output_info = external global [0 x %struct.pmix_output_desc_t], align 8
@.str.4 = private unnamed_addr constant [40 x i8] c"send blocking of %lu bytes to socket %d\00", align 1
@.str.5 = private unnamed_addr constant [57 x i8] c"blocking_send received error %d:%s from remote - cycling\00", align 1
@.str.6 = private unnamed_addr constant [66 x i8] c"ptl:base:peer_send_blocking: send() to socket %d failed: %s (%d)\0A\00", align 1
@.str.7 = private unnamed_addr constant [36 x i8] c"blocking send complete to socket %d\00", align 1

; Function Attrs: nounwind uwtable
define i32 @pmix_ptl_base_send_blocking(i32 noundef %0, ptr noundef %1, i64 noundef %2) #0 {
  %4 = alloca i32, align 4
  %5 = alloca i32, align 4
  %6 = alloca ptr, align 8
  %7 = alloca i64, align 8
  %8 = alloca i64, align 8
  %9 = alloca i32, align 4
  %10 = alloca i32, align 4
  store i32 %0, ptr %5, align 4, !tbaa !3
  store ptr %1, ptr %6, align 8, !tbaa !7
  store i64 %2, ptr %7, align 8, !tbaa !10
  call void @llvm.lifetime.start.p0(i64 8, ptr %8) #11
  store i64 0, ptr %8, align 8, !tbaa !10
  call void @llvm.lifetime.start.p0(i64 4, ptr %9) #11
  %11 = load i32, ptr getelementptr inbounds nuw (%struct.pmix_mca_base_framework_t, ptr @pmix_ptl_base_framework, i32 0, i32 11), align 4, !tbaa !12
  %12 = icmp sge i32 %11, 0
  br i1 %12, label %13, label %27

13:                                               ; preds = %3
  %14 = load i32, ptr getelementptr inbounds nuw (%struct.pmix_mca_base_framework_t, ptr @pmix_ptl_base_framework, i32 0, i32 11), align 4, !tbaa !12
  %15 = icmp slt i32 %14, 64
  br i1 %15, label %16, label %27

16:                                               ; preds = %13
  %17 = load i32, ptr getelementptr inbounds nuw (%struct.pmix_mca_base_framework_t, ptr @pmix_ptl_base_framework, i32 0, i32 11), align 4, !tbaa !12
  %18 = sext i32 %17 to i64
  %19 = getelementptr inbounds [0 x %struct.pmix_output_desc_t], ptr @pmix_output_info, i64 0, i64 %18
  %20 = getelementptr inbounds nuw %struct.pmix_output_desc_t, ptr %19, i32 0, i32 2
  %21 = load i32, ptr %20, align 4, !tbaa !21
  %22 = icmp sge i32 %21, 8
  br i1 %22, label %23, label %27

23:                                               ; preds = %16
  %24 = load i32, ptr getelementptr inbounds nuw (%struct.pmix_mca_base_framework_t, ptr @pmix_ptl_base_framework, i32 0, i32 11), align 4, !tbaa !12
  %25 = load i64, ptr %7, align 8, !tbaa !10
  %26 = load i32, ptr %5, align 4, !tbaa !3
  call void (i32, ptr, ...) @pmix_output(i32 noundef %24, ptr noundef @.str.4, i64 noundef %25, i32 noundef %26)
  br label %27

27:                                               ; preds = %23, %16, %13, %3
  br label %28

28:                                               ; preds = %100, %99, %72, %27
  %29 = load i64, ptr %8, align 8, !tbaa !10
  %30 = load i64, ptr %7, align 8, !tbaa !10
  %31 = icmp ult i64 %29, %30
  br i1 %31, label %32, label %105

32:                                               ; preds = %28
  %33 = load i32, ptr %5, align 4, !tbaa !3
  %34 = load ptr, ptr %6, align 8, !tbaa !7
  %35 = load i64, ptr %8, align 8, !tbaa !10
  %36 = getelementptr inbounds nuw i8, ptr %34, i64 %35
  %37 = load i64, ptr %7, align 8, !tbaa !10
  %38 = load i64, ptr %8, align 8, !tbaa !10
  %39 = sub i64 %37, %38
  %40 = call i64 @send(i32 noundef %33, ptr noundef %36, i64 noundef %39, i32 noundef 0)
  %41 = trunc i64 %40 to i32
  store i32 %41, ptr %9, align 4, !tbaa !3
  %42 = load i32, ptr %9, align 4, !tbaa !3
  %43 = icmp slt i32 %42, 0
  br i1 %43, label %44, label %100

44:                                               ; preds = %32
  %45 = call ptr @__errno_location() #12
  %46 = load i32, ptr %45, align 4, !tbaa !3
  %47 = icmp eq i32 11, %46
  br i1 %47, label %52, label %48

48:                                               ; preds = %44
  %49 = call ptr @__errno_location() #12
  %50 = load i32, ptr %49, align 4, !tbaa !3
  %51 = icmp eq i32 11, %50
  br i1 %51, label %52, label %73

52:                                               ; preds = %48, %44
  %53 = load i32, ptr getelementptr inbounds nuw (%struct.pmix_mca_base_framework_t, ptr @pmix_ptl_base_framework, i32 0, i32 11), align 4, !tbaa !12
  %54 = icmp sge i32 %53, 0
  br i1 %54, label %55, label %72

55:                                               ; preds = %52
  %56 = load i32, ptr getelementptr inbounds nuw (%struct.pmix_mca_base_framework_t, ptr @pmix_ptl_base_framework, i32 0, i32 11), align 4, !tbaa !12
  %57 = icmp slt i32 %56, 64
  br i1 %57, label %58, label %72

58:                                               ; preds = %55
  %59 = load i32, ptr getelementptr inbounds nuw (%struct.pmix_mca_base_framework_t, ptr @pmix_ptl_base_framework, i32 0, i32 11), align 4, !tbaa !12
  %60 = sext i32 %59 to i64
  %61 = getelementptr inbounds [0 x %struct.pmix_output_desc_t], ptr @pmix_output_info, i64 0, i64 %60
  %62 = getelementptr inbounds nuw %struct.pmix_output_desc_t, ptr %61, i32 0, i32 2
  %63 = load i32, ptr %62, align 4, !tbaa !21
  %64 = icmp sge i32 %63, 8
  br i1 %64, label %65, label %72

65:                                               ; preds = %58
  %66 = load i32, ptr getelementptr inbounds nuw (%struct.pmix_mca_base_framework_t, ptr @pmix_ptl_base_framework, i32 0, i32 11), align 4, !tbaa !12
  %67 = call ptr @__errno_location() #12
  %68 = load i32, ptr %67, align 4, !tbaa !3
  %69 = call ptr @__errno_location() #12
  %70 = load i32, ptr %69, align 4, !tbaa !3
  %71 = call ptr @strerror(i32 noundef %70) #11
  call void (i32, ptr, ...) @pmix_output(i32 noundef %66, ptr noundef @.str.5, i32 noundef %68, ptr noundef %71)
  br label %72

72:                                               ; preds = %65, %58, %55, %52
  br label %28, !llvm.loop !24

73:                                               ; preds = %48
  %74 = call ptr @__errno_location() #12
  %75 = load i32, ptr %74, align 4, !tbaa !3
  %76 = icmp ne i32 %75, 4
  br i1 %76, label %77, label %99

77:                                               ; preds = %73
  %78 = load i32, ptr getelementptr inbounds nuw (%struct.pmix_mca_base_framework_t, ptr @pmix_ptl_base_framework, i32 0, i32 11), align 4, !tbaa !12
  %79 = icmp sge i32 %78, 0
  br i1 %79, label %80, label %98

80:                                               ; preds = %77
  %81 = load i32, ptr getelementptr inbounds nuw (%struct.pmix_mca_base_framework_t, ptr @pmix_ptl_base_framework, i32 0, i32 11), align 4, !tbaa !12
  %82 = icmp slt i32 %81, 64
  br i1 %82, label %83, label %98

83:                                               ; preds = %80
  %84 = load i32, ptr getelementptr inbounds nuw (%struct.pmix_mca_base_framework_t, ptr @pmix_ptl_base_framework, i32 0, i32 11), align 4, !tbaa !12
  %85 = sext i32 %84 to i64
  %86 = getelementptr inbounds [0 x %struct.pmix_output_desc_t], ptr @pmix_output_info, i64 0, i64 %85
  %87 = getelementptr inbounds nuw %struct.pmix_output_desc_t, ptr %86, i32 0, i32 2
  %88 = load i32, ptr %87, align 4, !tbaa !21
  %89 = icmp sge i32 %88, 8
  br i1 %89, label %90, label %98

90:                                               ; preds = %83
  %91 = load i32, ptr getelementptr inbounds nuw (%struct.pmix_mca_base_framework_t, ptr @pmix_ptl_base_framework, i32 0, i32 11), align 4, !tbaa !12
  %92 = load i32, ptr %5, align 4, !tbaa !3
  %93 = call ptr @__errno_location() #12
  %94 = load i32, ptr %93, align 4, !tbaa !3
  %95 = call ptr @strerror(i32 noundef %94) #11
  %96 = call ptr @__errno_location() #12
  %97 = load i32, ptr %96, align 4, !tbaa !3
  call void (i32, ptr, ...) @pmix_output(i32 noundef %91, ptr noundef @.str.6, i32 noundef %92, ptr noundef %95, i32 noundef %97)
  br label %98

98:                                               ; preds = %90, %83, %80, %77
  store i32 -25, ptr %4, align 4
  store i32 1, ptr %10, align 4
  br label %122

99:                                               ; preds = %73
  br label %28, !llvm.loop !24

100:                                              ; preds = %32
  %101 = load i32, ptr %9, align 4, !tbaa !3
  %102 = sext i32 %101 to i64
  %103 = load i64, ptr %8, align 8, !tbaa !10
  %104 = add i64 %103, %102
  store i64 %104, ptr %8, align 8, !tbaa !10
  br label %28, !llvm.loop !24

105:                                              ; preds = %28
  %106 = load i32, ptr getelementptr inbounds nuw (%struct.pmix_mca_base_framework_t, ptr @pmix_ptl_base_framework, i32 0, i32 11), align 4, !tbaa !12
  %107 = icmp sge i32 %106, 0
  br i1 %107, label %108, label %121

108:                                              ; preds = %105
  %109 = load i32, ptr getelementptr inbounds nuw (%struct.pmix_mca_base_framework_t, ptr @pmix_ptl_base_framework, i32 0, i32 11), align 4, !tbaa !12
  %110 = icmp slt i32 %109, 64
  br i1 %110, label %111, label %121

111:                                              ; preds = %108
  %112 = load i32, ptr getelementptr inbounds nuw (%struct.pmix_mca_base_framework_t, ptr @pmix_ptl_base_framework, i32 0, i32 11), align 4, !tbaa !12
  %113 = sext i32 %112 to i64
  %114 = getelementptr inbounds [0 x %struct.pmix_output_desc_t], ptr @pmix_output_info, i64 0, i64 %113
  %115 = getelementptr inbounds nuw %struct.pmix_output_desc_t, ptr %114, i32 0, i32 2
  %116 = load i32, ptr %115, align 4, !tbaa !21
  %117 = icmp sge i32 %116, 8
  br i1 %117, label %118, label %121

118:                                              ; preds = %111
  %119 = load i32, ptr getelementptr inbounds nuw (%struct.pmix_mca_base_framework_t, ptr @pmix_ptl_base_framework, i32 0, i32 11), align 4, !tbaa !12
  %120 = load i32, ptr %5, align 4, !tbaa !3
  call void (i32, ptr, ...) @pmix_output(i32 noundef %119, ptr noundef @.str.7, i32 noundef %120)
  br label %121

121:                                              ; preds = %118, %111, %108, %105
  store i32 0, ptr %4, align 4
  store i32 1, ptr %10, align 4
  br label %122

122:                                              ; preds = %121, %98
  call void @llvm.lifetime.end.p0(i64 4, ptr %9) #11
  call void @llvm.lifetime.end.p0(i64 8, ptr %8) #11
  %123 = load i32, ptr %4, align 4
  ret i32 %123
}