; Function Attrs: nounwind uwtable
define range(i32 -25, 1) i32 @pmix_ptl_base_send_blocking(i32 noundef %0, ptr noundef %1, i64 noundef %2) local_unnamed_addr #0 {
  %4 = load i32, ptr getelementptr inbounds nuw (i8, ptr @pmix_ptl_base_framework, i64 76), align 4, !tbaa !7
  %or.cond = icmp ult i32 %4, 64
  br i1 %or.cond, label %5, label %11

5:                                                ; preds = %3
  %6 = zext nneg i32 %4 to i64
  %7 = getelementptr inbounds nuw [0 x %struct.pmix_output_desc_t], ptr @pmix_output_info, i64 0, i64 %6, i32 2
  %8 = load i32, ptr %7, align 4, !tbaa !19
  %9 = icmp sgt i32 %8, 7
  br i1 %9, label %10, label %11

10:                                               ; preds = %5
  tail call void (i32, ptr, ...) @pmix_output(i32 noundef %4, ptr noundef nonnull @.str.4, i64 noundef %2, i32 noundef %0) #14
  br label %11

11:                                               ; preds = %10, %5, %3
  %.not40 = icmp eq i64 %2, 0
  br i1 %.not40, label %.outer._crit_edge, label %.lr.ph.split.us

.lr.ph.split.us:                                  ; preds = %11, %.outer
  %.021.ph39 = phi i64 [ %40, %.outer ], [ 0, %11 ]
  %12 = getelementptr inbounds nuw i8, ptr %1, i64 %.021.ph39
  %13 = sub nuw i64 %2, %.021.ph39
  %14 = tail call i64 @send(i32 noundef %0, ptr noundef %12, i64 noundef %13, i32 noundef 0) #14
  %15 = and i64 %14, 2147483648
  %.not.us37 = icmp eq i64 %15, 0
  br i1 %.not.us37, label %.outer, label %.lr.ph38

.lr.ph38:                                         ; preds = %.lr.ph.split.us
  %16 = tail call ptr @__errno_location() #15
  br label %17

17:                                               ; preds = %.lr.ph38, %.backedge.us
  %18 = load i32, ptr %16, align 4, !tbaa !3
  switch i32 %18, label %.split34.us [
    i32 11, label %19
    i32 4, label %.backedge.us
  ]

19:                                               ; preds = %17
  %20 = load i32, ptr getelementptr inbounds nuw (i8, ptr @pmix_ptl_base_framework, i64 76), align 4, !tbaa !7
  %or.cond3.us = icmp ult i32 %20, 64
  br i1 %or.cond3.us, label %21, label %.backedge.us

21:                                               ; preds = %19
  %22 = zext nneg i32 %20 to i64
  %23 = getelementptr inbounds nuw [0 x %struct.pmix_output_desc_t], ptr @pmix_output_info, i64 0, i64 %22, i32 2
  %24 = load i32, ptr %23, align 4, !tbaa !19
  %25 = icmp sgt i32 %24, 7
  br i1 %25, label %26, label %.backedge.us

26:                                               ; preds = %21
  %27 = tail call ptr @strerror(i32 noundef 11) #14
  tail call void (i32, ptr, ...) @pmix_output(i32 noundef %20, ptr noundef nonnull @.str.5, i32 noundef 11, ptr noundef %27) #14
  br label %.backedge.us

.backedge.us:                                     ; preds = %19, %21, %26, %17
  %28 = tail call i64 @send(i32 noundef %0, ptr noundef %12, i64 noundef %13, i32 noundef 0) #14
  %29 = and i64 %28, 2147483648
  %.not.us = icmp eq i64 %29, 0
  br i1 %.not.us, label %.outer, label %17

.split34.us:                                      ; preds = %17
  %30 = load i32, ptr getelementptr inbounds nuw (i8, ptr @pmix_ptl_base_framework, i64 76), align 4, !tbaa !7
  %or.cond5 = icmp ult i32 %30, 64
  br i1 %or.cond5, label %31, label %49

31:                                               ; preds = %.split34.us
  %32 = zext nneg i32 %30 to i64
  %33 = getelementptr inbounds nuw [0 x %struct.pmix_output_desc_t], ptr @pmix_output_info, i64 0, i64 %32, i32 2
  %34 = load i32, ptr %33, align 4, !tbaa !19
  %35 = icmp sgt i32 %34, 7
  br i1 %35, label %36, label %49

36:                                               ; preds = %31
  %37 = tail call ptr @strerror(i32 noundef %18) #14
  %38 = load i32, ptr %16, align 4, !tbaa !3
  tail call void (i32, ptr, ...) @pmix_output(i32 noundef %30, ptr noundef nonnull @.str.6, i32 noundef %0, ptr noundef %37, i32 noundef %38) #14
  br label %49

.outer:                                           ; preds = %.backedge.us, %.lr.ph.split.us
  %.us-phi = phi i64 [ %14, %.lr.ph.split.us ], [ %28, %.backedge.us ]
  %39 = and i64 %.us-phi, 2147483647
  %40 = add i64 %39, %.021.ph39
  %41 = icmp ult i64 %40, %2
  br i1 %41, label %.lr.ph.split.us, label %.outer._crit_edge, !llvm.loop !22

.outer._crit_edge:                                ; preds = %.outer, %11
  %42 = load i32, ptr getelementptr inbounds nuw (i8, ptr @pmix_ptl_base_framework, i64 76), align 4, !tbaa !7
  %or.cond7 = icmp ult i32 %42, 64
  br i1 %or.cond7, label %43, label %49

43:                                               ; preds = %.outer._crit_edge
  %44 = zext nneg i32 %42 to i64
  %45 = getelementptr inbounds nuw [0 x %struct.pmix_output_desc_t], ptr @pmix_output_info, i64 0, i64 %44, i32 2
  %46 = load i32, ptr %45, align 4, !tbaa !19
  %47 = icmp sgt i32 %46, 7
  br i1 %47, label %48, label %49

48:                                               ; preds = %43
  tail call void (i32, ptr, ...) @pmix_output(i32 noundef %42, ptr noundef nonnull @.str.7, i32 noundef %0) #14
  br label %49

49:                                               ; preds = %.outer._crit_edge, %43, %48, %.split34.us, %31, %36
  %.0 = phi i32 [ -25, %36 ], [ -25, %31 ], [ -25, %.split34.us ], [ 0, %48 ], [ 0, %43 ], [ 0, %.outer._crit_edge ]
  ret i32 %.0
}